(lp0
(ccopy_reg
_reconstructor
p1
(cgeometry_msgs.msg._Pose
Pose
p2
c__builtin__
object
p3
Ntp4
Rp5
(lp6
(lp7
F0.38664631946610367
aF0.03793057623968038
aF0.7496973037450125
aa(lp8
F0.5897653865283976
aF0.2278784659720041
aF0.5547475881079016
aF0.540835748714637
aabI00
I00
tp9
a(g1
(g2
g3
Ntp10
Rp11
(lp12
(lp13
F0.4013376868492634
aF-0.25473702956045274
aF1.0755838920642444
aa(lp14
F-0.08530672800842523
aF-0.14703806467361757
aF0.36954993329806063
aF0.9135290999705112
aabI00
I00
tp15
a(g1
(g2
g3
Ntp16
Rp17
(lp18
(lp19
F0.6419090295009839
aF-0.019370535810555915
aF1.0319734702329513
aa(lp20
F0.05330589504042562
aF-0.008021552003620485
aF-0.05191598228676368
aF-0.997195500912731
aabI00
I00
tp21
a(g1
(g2
g3
Ntp22
Rp23
(lp24
(lp25
F0.6424753786659899
aF-0.018679314613544048
aF1.0313412572985254
aa(lp26
F0.052770612596456636
aF-0.009178982419627339
aF-0.052328848720202534
aF-0.9971924088758161
aabI00
I01
tp27
a(g1
(g2
g3
Ntp28
Rp29
(lp30
(lp31
F0.45618588780959807
aF0.1434760213632449
aF1.0046408806450613
aa(lp32
F-0.08406016693692558
aF0.036951509546997253
aF0.7207237880195583
aF0.6871140339561356
aabI00
I01
tp33
a(g1
(g2
g3
Ntp34
Rp35
(lp36
(lp37
F0.46166850507023943
aF0.23291656847529904
aF1.040001004180813
aa(lp38
F0.25651807619928274
aF-0.2059714750766747
aF0.6935278146482111
aF0.6409316643348448
aabI00
I01
tp39
a.