(lp0
(ccopy_reg
_reconstructor
p1
(cgeometry_msgs.msg._Pose
Pose
p2
c__builtin__
object
p3
Ntp4
Rp5
(lp6
(lp7
F0.48562510044667356
aF-7.88947303163765e-05
aF0.9977293621447931
aa(lp8
F0.0003066420864456643
aF0.0013562626039327619
aF0.0006683948113528904
aF0.9999988098846696
aabI00
I00
tp9
a(g1
(g2
g3
Ntp10
Rp11
(lp12
(lp13
F0.7587989142242181
aF0.00010670008740778693
aF0.9978004096242121
aa(lp14
F-0.000981612400142312
aF0.004865106469443526
aF-0.0005650250998071872
aF-0.99998752388356
aabI00
I00
tp15
a(g1
(g2
g3
Ntp16
Rp17
(lp18
(lp19
F0.7587939101558852
aF0.00010027791950458966
aF0.9978086486262467
aa(lp20
F-0.0009796371482748104
aF0.0048477279163688745
aF-0.0005664338677153214
aF-0.9999876094221266
aabI00
I01
tp21
a(g1
(g2
g3
Ntp22
Rp23
(lp24
(lp25
F0.43982365395768624
aF-2.324485316858073e-05
aF1.0951973128100505
aa(lp26
F-0.004604348178416593
aF0.001037917984238009
aF-0.0030771394183121137
aF0.9999841268325761
aabI00
I01
tp27
a.