(dp0
S'basket'
p1
ccopy_reg
_reconstructor
p2
(cgeometry_msgs.msg._Pose
Pose
p3
c__builtin__
object
p4
Ntp5
Rp6
(lp7
g2
(cgeometry_msgs.msg._Point
Point
p8
g4
Ntp9
Rp10
(lp11
F10.449824665419456
aF-0.8374709896495016
aF0.10000000149011612
abag2
(cgeometry_msgs.msg._Quaternion
Quaternion
p12
g4
Ntp13
Rp14
(lp15
F0.0
aF0.0
aF0.6989667522301592
aF0.715154164692357
ababsS'roam_1'
p16
g2
(g3
g4
Ntp17
Rp18
(lp19
g2
(g8
g4
Ntp20
Rp21
(lp22
F15.546120312432334
aF-2.0235484639329795
aF0.10000000149011612
abag2
(g12
g4
Ntp23
Rp24
(lp25
F0.0
aF0.0
aF0.017466946550907785
aF0.9998474412520082
ababsS'roam_2'
p26
g2
(g3
g4
Ntp27
Rp28
(lp29
g2
(g8
g4
Ntp30
Rp31
(lp32
F7.967269459292725
aF-2.0190504029157768
aF0.10000000149011612
abag2
(g12
g4
Ntp33
Rp34
(lp35
F0.0
aF0.0
aF0.9999457346408208
aF0.010417666419570296
ababsS'roam_3'
p36
g2
(g3
g4
Ntp37
Rp38
(lp39
g2
(g8
g4
Ntp40
Rp41
(lp42
F12.42106389953746
aF-2.1979816334164206
aF0.10000000149011612
abag2
(g12
g4
Ntp43
Rp44
(lp45
F0.0
aF0.0
aF0.7516058817420729
aF-0.6596124608667738
ababs.