(dp0
S'basket'
p1
ccopy_reg
_reconstructor
p2
(cgeometry_msgs.msg._Pose
Pose
p3
c__builtin__
object
p4
Ntp5
Rp6
(lp7
g2
(cgeometry_msgs.msg._Point
Point
p8
g4
Ntp9
Rp10
(lp11
F1.5116719466050978
aF-1.503615094917985
aF0.10000000149011523
abag2
(cgeometry_msgs.msg._Quaternion
Quaternion
p12
g4
Ntp13
Rp14
(lp15
F0.0
aF0.0
aF0.6989667449317143
aF0.7151541718256029
ababsS'roam_1'
p16
g2
(g3
g4
Ntp17
Rp18
(lp19
g2
(g8
g4
Ntp20
Rp21
(lp22
F3.4467570907883642
aF-2.187673351628018
aF0.10000000149011434
abag2
(g12
g4
Ntp23
Rp24
(lp25
F0.0
aF0.0
aF-0.18022631215932763
aF0.9836251706851795
ababsS'roam_2'
p26
g2
(g3
g4
Ntp27
Rp28
(lp29
g2
(g8
g4
Ntp30
Rp31
(lp32
F-3.4820506529678
aF-2.5959946113590417
aF0.10000000149011257
abag2
(g12
g4
Ntp33
Rp34
(lp35
F0.0
aF0.0
aF0.9999457346408208
aF0.010417666419570296
ababsS'roam_3'
p36
g2
(g3
g4
Ntp37
Rp38
(lp39
g2
(g8
g4
Ntp40
Rp41
(lp42
F-0.7306635744190946
aF-2.4109028241464583
aF0.10000000149011612
abag2
(g12
g4
Ntp43
Rp44
(lp45
F0.0
aF0.0
aF0.7516058817420729
aF-0.6596124608667738
ababs.