(dp0
S'basket'
p1
ccopy_reg
_reconstructor
p2
(cgeometry_msgs.msg._Pose
Pose
p3
c__builtin__
object
p4
Ntp5
Rp6
(lp7
g2
(cgeometry_msgs.msg._Point
Point
p8
g4
Ntp9
Rp10
(lp11
F16.444007873535156
aF-0.42958879470825195
aF0.09999904781579971
abag2
(cgeometry_msgs.msg._Quaternion
Quaternion
p12
g4
Ntp13
Rp14
(lp15
F-1.505086943964784e-09
aF-1.9339907453286287e-10
aF0.7145613431930542
aF0.6995728611946106
ababsS'roam_1'
p16
g2
(g3
g4
Ntp17
Rp18
(lp19
g2
(g8
g4
Ntp20
Rp21
(lp22
F16.394428253173828
aF-2.1103031635284424
aF0.10000000149011612
abag2
(g12
g4
Ntp23
Rp24
(lp25
F1.873264352525439e-07
aF2.5582116336408944e-07
aF-0.041851941496133804
aF-0.9991238117218018
ababsS'roam_2'
p26
g2
(g3
g4
Ntp27
Rp28
(lp29
g2
(g8
g4
Ntp30
Rp31
(lp32
F13.958799362182617
aF-2.1262753009796143
aF0.0999971404671669
abag2
(g12
g4
Ntp33
Rp34
(lp35
F1.3237598750492907e-07
aF1.1400008048667587e-08
aF-0.6968081593513489
aF-0.717257559299469
ababsS'roam_3'
p36
g2
(g3
g4
Ntp37
Rp38
(lp39
g2
(g8
g4
Ntp40
Rp41
(lp42
F11.786737442016602
aF-1.1576097011566162
aF0.0999971404671669
abag2
(g12
g4
Ntp43
Rp44
(lp45
F-1.5692942056944048e-08
aF1.7647161953959767e-08
aF0.9297413229942322
aF-0.36821407079696655
ababs.