(dp0
S'basket'
p1
ccopy_reg
_reconstructor
p2
(cgeometry_msgs.msg._Pose
Pose
p3
c__builtin__
object
p4
Ntp5
Rp6
(lp7
g2
(cgeometry_msgs.msg._Point
Point
p8
g4
Ntp9
Rp10
(lp11
F1.5045972923819422
aF-1.7062635494741243
aF0.0999990111643648
abag2
(cgeometry_msgs.msg._Quaternion
Quaternion
p12
g4
Ntp13
Rp14
(lp15
F-1.5050868677277145e-09
aF-1.9339906473663233e-10
aF0.7145613069984257
aF0.6995728257591927
ababsS'roam_4'
p16
g2
(g3
g4
Ntp17
Rp18
(lp19
g2
(g8
g4
Ntp20
Rp21
(lp22
F3.42194463004941
aF-2.4352187022462384
aF0.10000000149011612
abag2
(g12
g4
Ntp23
Rp24
(lp25
F0.0
aF0.0
aF0.8616831033896577
aF-0.5074467748767043
ababsS'roam_1'
p26
g2
(g3
g4
Ntp27
Rp28
(lp29
g2
(g8
g4
Ntp30
Rp31
(lp32
F8.104004632526234
aF-1.966823392920889
aF0.0999955841296255
abag2
(g12
g4
Ntp33
Rp34
(lp35
F1.8732643748579363e-07
aF2.5582116641391283e-07
aF-0.04185194199508013
aF-0.9991238236330571
ababsS'roam_2'
p36
g2
(g3
g4
Ntp37
Rp38
(lp39
g2
(g8
g4
Ntp40
Rp41
(lp42
F6.683710104777056
aF-2.706683220915125
aF0.09999579466213813
abag2
(g12
g4
Ntp43
Rp44
(lp45
F1.3237598635915777e-07
aF1.1400007949995597e-08
aF-0.6968081533201734
aF-0.7172575530912952
ababsS'roam_3'
p46
g2
(g3
g4
Ntp47
Rp48
(lp49
g2
(g8
g4
Ntp50
Rp51
(lp52
F5.1694468703301055
aF-2.5311173110498624
aF0.10000000149011612
abag2
(g12
g4
Ntp53
Rp54
(lp55
F0.0
aF0.0
aF0.9518295400786917
aF0.3066276677561671
ababs.