(dp0
S'basket'
p1
ccopy_reg
_reconstructor
p2
(cgeometry_msgs.msg._Pose
Pose
p3
c__builtin__
object
p4
Ntp5
Rp6
(lp7
g2
(cgeometry_msgs.msg._Point
Point
p8
g4
Ntp9
Rp10
(lp11
F1.5605712670738956
aF-1.3034037168560877
aF0.0999990112018231
abag2
(cgeometry_msgs.msg._Quaternion
Quaternion
p12
g4
Ntp13
Rp14
(lp15
F-1.5050868677277145e-09
aF-1.9339906473663233e-10
aF0.7145613069984257
aF0.6995728257591927
ababsS'roam_1'
p16
g2
(g3
g4
Ntp17
Rp18
(lp19
g2
(g8
g4
Ntp20
Rp21
(lp22
F4.048827968885227
aF-2.528794828933852
aF0.09999364460509597
abag2
(g12
g4
Ntp23
Rp24
(lp25
F1.8732643748579363e-07
aF2.5582116641391283e-07
aF-0.04185194199508013
aF-0.9991238236330571
ababsS'roam_2'
p26
g2
(g3
g4
Ntp27
Rp28
(lp29
g2
(g8
g4
Ntp30
Rp31
(lp32
F-0.8388514790407879
aF-2.854799362300974
aF0.09999429821373845
abag2
(g12
g4
Ntp33
Rp34
(lp35
F1.3237598635915774e-07
aF1.1400007949995594e-08
aF-0.6968081533201733
aF-0.7172575530912951
ababsS'roam_3'
p36
g2
(g3
g4
Ntp37
Rp38
(lp39
g2
(g8
g4
Ntp40
Rp41
(lp42
F-3.787201936463738
aF-2.716233326250027
aF0.09999651674439634
abag2
(g12
g4
Ntp43
Rp44
(lp45
F-1.5692937901329576e-08
aF1.7647157280852497e-08
aF0.929741076791418
aF-0.3682139732909849
ababs.