(lp0
(ccopy_reg
_reconstructor
p1
(cgeometry_msgs.msg._Pose
Pose
p2
c__builtin__
object
p3
Ntp4
Rp5
(lp6
g1
(cgeometry_msgs.msg._Point
Point
p7
g3
Ntp8
Rp9
(lp10
cnumpy.core.multiarray
scalar
p11
(cnumpy
dtype
p12
(S'f8'
p13
I0
I1
tp14
Rp15
(I3
S'<'
p16
NNNI-1
I-1
I0
tp17
bS'\xfco\x16\x95\xa8{\x96\xbf'
p18
tp19
Rp20
ag11
(g15
S'\xf0\t\xf2\x9a\xf8\xef\xa1\xbf'
p21
tp22
Rp23
ag11
(g15
S' !C\x16\x94"\xde?'
p24
tp25
Rp26
abag1
(cgeometry_msgs.msg._Quaternion
Quaternion
p27
g3
Ntp28
Rp29
(lp30
g11
(g15
S'\x05\x98j\x01\x17a\xe3?'
p31
tp32
Rp33
ag11
(g15
S'f\x8d^3\xb8\xbc\xdd?'
p34
tp35
Rp36
ag11
(g15
S'\x8c\xbc\xf3\x0elr\xe1\xbf'
p37
tp38
Rp39
ag11
(g15
S'\xb3=\xe1\x7f\xba-\xd6?'
p40
tp41
Rp42
ababI01
I01
tp43
a(g1
(g2
g3
Ntp44
Rp45
(lp46
g1
(g7
g3
Ntp47
Rp48
(lp49
g11
(g15
S'\xd8\xec\x83\xfd\x9f\x17\x8a\xbf'
p50
tp51
Rp52
ag11
(g15
S' \x82\xe8M\x04+\x92\xbf'
p53
tp54
Rp55
ag11
(g15
S'\xe2\x15Y\xd9u \xc8?'
p56
tp57
Rp58
abag1
(g27
g3
Ntp59
Rp60
(lp61
g11
(g15
S'\xf4<\xd8\t\xef\xb2\xe4?'
p62
tp63
Rp64
ag11
(g15
S'\x86V\x9a\xebL\xa8\xdb?'
p65
tp66
Rp67
ag11
(g15
S'\xf5@\xae\x08\x91M\xe0\xbf'
p68
tp69
Rp70
ag11
(g15
S'\xdcK,V9\x8a\xd7?'
p71
tp72
Rp73
ababI01
I01
tp74
a(g1
(g2
g3
Ntp75
Rp76
(lp77
g1
(g7
g3
Ntp78
Rp79
(lp80
g11
(g15
S'\x0c\xedr\x02 /\x8b\xbf'
p81
tp82
Rp83
ag11
(g15
S'\x80EA`\t\xb3\x92\xbf'
p84
tp85
Rp86
ag11
(g15
S'u\xea\xad\x90\xaa\x14\xc8?'
p87
tp88
Rp89
abag1
(g27
g3
Ntp90
Rp91
(lp92
g11
(g15
S'\x18\xdbEO\xb0\xac\xe4?'
p93
tp94
Rp95
ag11
(g15
S'{\xc9,\xeau\xae\xdb?'
p96
tp97
Rp98
ag11
(g15
S'f\x7f\xbci\xa0R\xe0\xbf'
p99
tp100
Rp101
ag11
(g15
S'P4\xb9\xc6\xe8\x8a\xd7?'
p102
tp103
Rp104
ababI01
I00
tp105
a(g1
(g2
g3
Ntp106
Rp107
(lp108
(lp109
F0.5488599011093966
aF0.01680598106160457
aF0.5095529835903554
aa(lp110
F-0.7679724119065785
aF0.08110423217732464
aF0.6343326740713203
aF0.03553219214806155
aabI00
I00
tp111
a(g1
(g2
g3
Ntp112
Rp113
(lp114
(lp115
F0.49022818058601775
aF0.009982502500865898
aF0.6417752827669768
aa(lp116
F-0.794053345809239
aF0.07581656736951618
aF0.6027656490230991
aF0.020117268184806116
aabI00
I00
tp117
a.