(dp0
S'basket'
p1
ccopy_reg
_reconstructor
p2
(cgeometry_msgs.msg._Pose
Pose
p3
c__builtin__
object
p4
Ntp5
Rp6
(lp7
g2
(cgeometry_msgs.msg._Point
Point
p8
g4
Ntp9
Rp10
(lp11
F-0.17252802532213596
aF3.49739508779177
aF0.10000000149011612
abag2
(cgeometry_msgs.msg._Quaternion
Quaternion
p12
g4
Ntp13
Rp14
(lp15
F0.0
aF0.0
aF-0.9998986536081731
aF0.014236660864212993
ababsS'roam_1'
p16
g2
(g3
g4
Ntp17
Rp18
(lp19
g2
(g8
g4
Ntp20
Rp21
(lp22
F1.9080888176660915
aF1.9419037386265106
aF0.10000000149011612
abag2
(g12
g4
Ntp23
Rp24
(lp25
F0.0
aF0.0
aF-0.6421412470892323
aF0.7665863413775944
ababsS'roam_2'
p26
g2
(g3
g4
Ntp27
Rp28
(lp29
g2
(g8
g4
Ntp30
Rp31
(lp32
F2.126017387892203
aF3.700035089387791
aF0.1000000014901179
abag2
(g12
g4
Ntp33
Rp34
(lp35
F0.0
aF0.0
aF0.9993672283570988
aF0.03556884712568267
ababs.