(lp0
(ccopy_reg
_reconstructor
p1
(cgeometry_msgs.msg._Pose
Pose
p2
c__builtin__
object
p3
Ntp4
Rp5
(lp6
(lp7
F0.08769286222538243
aF0.1604708100056737
aF0.7163584567173884
aa(lp8
F0.0011681784136896817
aF0.694095231558216
aF-0.007184317726369552
aF-0.7198463936605829
aabI00
I00
tp9
a.