(lp0
(ccopy_reg
_reconstructor
p1
(cgeometry_msgs.msg._Pose
Pose
p2
c__builtin__
object
p3
Ntp4
Rp5
(lp6
(lp7
F0.4255816729031792
aF0.08357680367358808
aF0.6432077618051062
aa(lp8
F-0.44955807740727893
aF-0.21276308210584938
aF0.5997383102115412
aF0.6268519483859769
aabI00
I00
tp9
a(g1
(g2
g3
Ntp10
Rp11
(lp12
(lp13
F0.24509841372836005
aF0.12533135595899877
aF0.6050981230910186
aa(lp14
F-0.1183060396547532
aF-0.14479102985156814
aF0.6636500441393449
aF0.7242981827739008
aabI00
I00
tp15
a(g1
(g2
g3
Ntp16
Rp17
(lp18
(lp19
F0.13899412845642106
aF0.13110943498297367
aF0.5067905953300268
aa(lp20
F-0.019699834988219027
aF0.022060165117558147
aF0.6501299280119173
aF0.7592472208178587
aabI00
I00
tp21
a.