(lp0
(ccopy_reg
_reconstructor
p1
(cgeometry_msgs.msg._Pose
Pose
p2
c__builtin__
object
p3
Ntp4
Rp5
(lp6
(lp7
F0.08788212283170664
aF0.3399151805354985
aF0.9052958243629801
aa(lp8
F0.4424181952362982
aF0.34489224093995746
aF0.6197182453887353
aF-0.5488759231334326
aabI00
I01
tp9
a.