(dp0
S'point1'
p1
ccopy_reg
_reconstructor
p2
(cgeometry_msgs.msg._PoseWithCovarianceStamped
PoseWithCovarianceStamped
p3
c__builtin__
object
p4
Ntp5
Rp6
(lp7
g2
(cstd_msgs.msg._Header
Header
p8
g4
Ntp9
Rp10
(lp11
I21
ag2
(cgenpy.rostime
Time
p12
g4
Ntp13
Rp14
(lp15
I672
aI217000000
abaS'map'
p16
abag2
(cgeometry_msgs.msg._PoseWithCovariance
PoseWithCovariance
p17
g4
Ntp18
Rp19
(lp20
g2
(cgeometry_msgs.msg._Pose
Pose
p21
g4
Ntp22
Rp23
(lp24
g2
(cgeometry_msgs.msg._Point
Point
p25
g4
Ntp26
Rp27
(lp28
F3.4182034457377344
aF-3.121970925617283
aF0.0
abag2
(cgeometry_msgs.msg._Quaternion
Quaternion
p29
g4
Ntp30
Rp31
(lp32
F0.0
aF0.0
aF-0.5018017052870534
aF0.8649826868620003
ababa(F0.010448051926561064
F-0.005499448453988975
F0.0
F0.0
F0.0
F0.0
F-0.005499448453988975
F0.007080146308274138
F0.0
F0.0
F0.0
F0.0
F0.0
F0.0
F0.0
F0.0
F0.0
F0.0
F0.0
F0.0
F0.0
F0.0
F0.0
F0.0
F0.0
F0.0
F0.0
F0.0
F0.0
F0.0
F0.0
F0.0
F0.0
F0.0
F0.0
F0.006425685577963536
tp33
ababsS'point2'
p34
g2
(g3
g4
Ntp35
Rp36
(lp37
g2
(g8
g4
Ntp38
Rp39
(lp40
I77
ag2
(g12
g4
Ntp41
Rp42
(lp43
I767
aI447000000
abaS'map'
p44
abag2
(g17
g4
Ntp45
Rp46
(lp47
g2
(g21
g4
Ntp48
Rp49
(lp50
g2
(g25
g4
Ntp51
Rp52
(lp53
F0.339744060480207
aF4.890617607102813
aF0.0
abag2
(g29
g4
Ntp54
Rp55
(lp56
F0.0
aF0.0
aF0.3683590464067172
aF0.9296836090468272
ababa(F0.011168885016001107
F0.0013460414245398677
F0.0
F0.0
F0.0
F0.0
F0.0013460414245396457
F0.012835756557258549
F0.0
F0.0
F0.0
F0.0
F0.0
F0.0
F0.0
F0.0
F0.0
F0.0
F0.0
F0.0
F0.0
F0.0
F0.0
F0.0
F0.0
F0.0
F0.0
F0.0
F0.0
F0.0
F0.0
F0.0
F0.0
F0.0
F0.0
F0.005325936422744784
tp57
ababsS'point3'
p58
g2
(g3
g4
Ntp59
Rp60
(lp61
g2
(g8
g4
Ntp62
Rp63
(lp64
I175
ag2
(g12
g4
Ntp65
Rp66
(lp67
I831
aI793000000
abaS'map'
p68
abag2
(g17
g4
Ntp69
Rp70
(lp71
g2
(g21
g4
Ntp72
Rp73
(lp74
g2
(g25
g4
Ntp75
Rp76
(lp77
F-1.2406434450125827
aF-4.461039809881602
aF0.0
abag2
(g29
g4
Ntp78
Rp79
(lp80
F0.0
aF0.0
aF-0.9670030455838903
aF0.2547648127812801
ababa(F0.011456989936602158
F0.002279166625224427
F0.0
F0.0
F0.0
F0.0
F0.002279166625224427
F0.01592775758777165
F0.0
F0.0
F0.0
F0.0
F0.0
F0.0
F0.0
F0.0
F0.0
F0.0
F0.0
F0.0
F0.0
F0.0
F0.0
F0.0
F0.0
F0.0
F0.0
F0.0
F0.0
F0.0
F0.0
F0.0
F0.0
F0.0
F0.0
F0.008950881223580292
tp81
ababs.