(lp0
(ccopy_reg
_reconstructor
p1
(cgeometry_msgs.msg._Pose
Pose
p2
c__builtin__
object
p3
Ntp4
Rp5
(lp6
(lp7
F0.671860679535884
aF-0.06302189525086405
aF0.8766158319493265
aa(lp8
F-0.025444304800145468
aF-0.03561376089839248
aF0.010559860994020379
aF-0.9989858541159109
aabI00
I00
tp9
a(g1
(g2
g3
Ntp10
Rp11
(lp12
(lp13
F0.6724902778045151
aF-0.06342569231397818
aF0.8759802601947415
aa(lp14
F-0.02579186152779914
aF-0.0371118313894781
aF0.010665517432865016
aF-0.998921287483523
aabI00
I01
tp15
a.