(lp0
(ccopy_reg
_reconstructor
p1
(cgeometry_msgs.msg._Pose
Pose
p2
c__builtin__
object
p3
Ntp4
Rp5
(lp6
g1
(cgeometry_msgs.msg._Point
Point
p7
g3
Ntp8
Rp9
(lp10
cnumpy.core.multiarray
scalar
p11
(cnumpy
dtype
p12
(S'f8'
p13
I0
I1
tp14
Rp15
(I3
S'<'
p16
NNNI-1
I-1
I0
tp17
bS'P\x1bD\x03\x16\x94~?'
p18
tp19
Rp20
ag11
(g15
S' \x89\xcag\x17\xcc\x9c?'
p21
tp22
Rp23
ag11
(g15
S'\nB\x06\xac\x15\xb8\xd0?'
p24
tp25
Rp26
abag1
(cgeometry_msgs.msg._Quaternion
Quaternion
p27
g3
Ntp28
Rp29
(lp30
g11
(g15
S"<\xbb\rnf'\xdf\xbf"
p31
tp32
Rp33
ag11
(g15
S'\n\xc5\xecU\x133\xe0?'
p34
tp35
Rp36
ag11
(g15
S'\x00)r1\xe4q\xe0?'
p37
tp38
Rp39
ag11
(g15
S'sq<Y\x1b\x87\xdf?'
p40
tp41
Rp42
ababI01
I01
tp43
a(g1
(g2
g3
Ntp44
Rp45
(lp46
g1
(g7
g3
Ntp47
Rp48
(lp49
g11
(g15
S'\x10\xff\t"\xdbGr?'
p50
tp51
Rp52
ag11
(g15
S'\x80E\x98\xff\x9b\xc6\x9d?'
p53
tp54
Rp55
ag11
(g15
S'\xb0\x15"\x9e\x916\xc7?'
p56
tp57
Rp58
abag1
(g27
g3
Ntp59
Rp60
(lp61
g11
(g15
S'=\x11\x88MK\x05\xdf\xbf'
p62
tp63
Rp64
ag11
(g15
S'\x9d\xe5\x86j\x0bI\xe0?'
p65
tp66
Rp67
ag11
(g15
S'\x02\xe0\x13?1i\xe0?'
p68
tp69
Rp70
ag11
(g15
S'\x08}9\xb6\x97\x8d\xdf?'
p71
tp72
Rp73
ababI01
I01
tp74
a(g1
(g2
g3
Ntp75
Rp76
(lp77
g1
(g7
g3
Ntp78
Rp79
(lp80
g11
(g15
S'0\x91\xe2\xbd\xa6\xf3t?'
p81
tp82
Rp83
ag11
(g15
S'\x00\x11S"P\x9a\x9d?'
p84
tp85
Rp86
ag11
(g15
S'\xa3\x84^F\xdf1\xc7?'
p87
tp88
Rp89
abag1
(g27
g3
Ntp90
Rp91
(lp92
g11
(g15
S'#\xb8\xcb\xdff\t\xdf\xbf'
p93
tp94
Rp95
ag11
(g15
S'\xe2\x0c\xe9QHI\xe0?'
p96
tp97
Rp98
ag11
(g15
S'\xa4\xa5\xbc\xdf\x96g\xe0?'
p99
tp100
Rp101
ag11
(g15
S"\\\x1c'pe\x8c\xdf?"
p102
tp103
Rp104
ababI01
I00
tp105
a(g1
(g2
g3
Ntp106
Rp107
(lp108
g1
(g7
g3
Ntp109
Rp110
(lp111
g11
(g15
S'0\x88\xed\xbac }?'
p112
tp113
Rp114
ag11
(g15
S'\xe0W\xf4;l\x8b\x9d?'
p115
tp116
Rp117
ag11
(g15
S'\x92\x18[\xdd\xcaZ\xcf?'
p118
tp119
Rp120
abag1
(g27
g3
Ntp121
Rp122
(lp123
g11
(g15
S'\x9aqF\xa6\x95\x0e\xdf\xbf'
p124
tp125
Rp126
ag11
(g15
S'\xcb\x93\x8d\xec\xa8J\xe0?'
p127
tp128
Rp129
ag11
(g15
S'S\xce\xb8\x0b\xb9d\xe0?'
p130
tp131
Rp132
ag11
(g15
S'\x11\x01\x14Di\x8a\xdf?'
p133
tp134
Rp135
ababI01
I00
tp136
a(g1
(g2
g3
Ntp137
Rp138
(lp139
(lp140
F-0.05567228214106547
aF0.2967645252267909
aF0.7062786965874852
aa(lp141
F0.467493384231215
aF-0.5306850452588223
aF0.4686326846407881
aF0.529345563243005
aabI00
I00
tp142
a.