(dp0
S'starter'
p1
ccopy_reg
_reconstructor
p2
(cgeometry_msgs.msg._PoseWithCovarianceStamped
PoseWithCovarianceStamped
p3
c__builtin__
object
p4
Ntp5
Rp6
(lp7
g2
(cstd_msgs.msg._Header
Header
p8
g4
Ntp9
Rp10
(lp11
I0
ag2
(cgenpy.rostime
Time
p12
g4
Ntp13
Rp14
(lp15
I3289
aI596000000
abaS'map'
p16
abag2
(cgeometry_msgs.msg._PoseWithCovariance
PoseWithCovariance
p17
g4
Ntp18
Rp19
(lp20
g2
(cgeometry_msgs.msg._Pose
Pose
p21
g4
Ntp22
Rp23
(lp24
g2
(cgeometry_msgs.msg._Point
Point
p25
g4
Ntp26
Rp27
(lp28
F0.0053276420639235145
aF0.01084965599183545
aF0.0
abag2
(cgeometry_msgs.msg._Quaternion
Quaternion
p29
g4
Ntp30
Rp31
(lp32
F0.0
aF0.0
aF0.0008696982223221679
aF0.9999996218124295
ababa(F0.2361499860964596
F0.0007533721916314348
F0.0
F0.0
F0.0
F0.0
F0.0007533721916314341
F0.24403000924549967
F0.0
F0.0
F0.0
F0.0
F0.0
F0.0
F0.0
F0.0
F0.0
F0.0
F0.0
F0.0
F0.0
F0.0
F0.0
F0.0
F0.0
F0.0
F0.0
F0.0
F0.0
F0.0
F0.0
F0.0
F0.0
F0.0
F0.0
F0.07017381955854368
tp33
ababs.