(dp0
S'basket'
p1
ccopy_reg
_reconstructor
p2
(cgeometry_msgs.msg._Pose
Pose
p3
c__builtin__
object
p4
Ntp5
Rp6
(lp7
g2
(cgeometry_msgs.msg._Point
Point
p8
g4
Ntp9
Rp10
(lp11
F1.4335668649653581
aF-0.8018977173594415
aF0.10000000149011612
abag2
(cgeometry_msgs.msg._Quaternion
Quaternion
p12
g4
Ntp13
Rp14
(lp15
F0.0
aF0.0
aF0.7282497745735508
aF0.6853118019074037
ababsS'hallway_start'
p16
g2
(g3
g4
Ntp17
Rp18
(lp19
g2
(g8
g4
Ntp20
Rp21
(lp22
F0.3233719284644172
aF-2.4008753667966563
aF0.1000000014901179
abag2
(g12
g4
Ntp23
Rp24
(lp25
F0.0
aF0.0
aF0.0
aF1.0
ababsS'roam_1'
p26
g2
(g3
g4
Ntp27
Rp28
(lp29
g2
(g8
g4
Ntp30
Rp31
(lp32
F4.886215656494718
aF-2.368596290312073
aF0.10000000149011612
abag2
(g12
g4
Ntp33
Rp34
(lp35
F0.0
aF0.0
aF0.9998326451867223
aF-0.018294305641970356
ababsS'roam_2'
p36
g2
(g3
g4
Ntp37
Rp38
(lp39
g2
(g8
g4
Ntp40
Rp41
(lp42
F-3.4555865827311725
aF-2.537904335637256
aF0.10000000149011612
abag2
(g12
g4
Ntp43
Rp44
(lp45
F0.0
aF0.0
aF0.0
aF1.0
ababs.