(lp0
(ccopy_reg
_reconstructor
p1
(cgeometry_msgs.msg._Pose
Pose
p2
c__builtin__
object
p3
Ntp4
Rp5
(lp6
(lp7
F0.45589683008580667
aF-3.0324199550613043e-05
aF1.0139999911954958
aa(lp8
F0.002768660438136864
aF-0.002462051077305916
aF-0.0001765324952122115
aF0.9999931208064129
aabI00
I00
tp9
a(g1
(g2
g3
Ntp10
Rp11
(lp12
(lp13
F0.7030376710968267
aF8.093618360628398e-05
aF1.0142599811584563
aa(lp14
F0.0011484386070172736
aF-0.0035724368736849005
aF-0.0040661933563089225
aF-0.9999846923104065
aabI00
I00
tp15
a(g1
(g2
g3
Ntp16
Rp17
(lp18
(lp19
F0.703024020195972
aF6.165452944910125e-05
aF1.01423744557654
aa(lp20
F0.0011516817350785441
aF-0.0035411917551225356
aF-0.004079504043198734
aF-0.9999847455020979
aabI00
I01
tp21
a.