(lp0
(ccopy_reg
_reconstructor
p1
(cgeometry_msgs.msg._Pose
Pose
p2
c__builtin__
object
p3
Ntp4
Rp5
(lp6
g1
(cgeometry_msgs.msg._Point
Point
p7
g3
Ntp8
Rp9
(lp10
cnumpy.core.multiarray
scalar
p11
(cnumpy
dtype
p12
(S'f8'
p13
I0
I1
tp14
Rp15
(I3
S'<'
p16
NNNI-1
I-1
I0
tp17
bS'\x80\x84\x99\x8a1\xb9\xc9?'
p18
tp19
Rp20
ag11
(g15
S'8?.^\xbf\xb8\xc0\xbf'
p21
tp22
Rp23
ag11
(g15
S'<V,v\x15\x99\xdf?'
p24
tp25
Rp26
abag1
(cgeometry_msgs.msg._Quaternion
Quaternion
p27
g3
Ntp28
Rp29
(lp30
g11
(g15
S'F\x1a\xd4\xc8(\x0f\xe8?'
p31
tp32
Rp33
ag11
(g15
S'\r\xd5\x17\xb9\xc0i\xad\xbf'
p34
tp35
Rp36
ag11
(g15
S'{#M\xefZx\xe4\xbf'
p37
tp38
Rp39
ag11
(g15
S'\x8a=S\x0c\xf9\x13\xc3?'
p40
tp41
Rp42
ababI3
I01
tp43
a.