(lp0
(ccopy_reg
_reconstructor
p1
(cgeometry_msgs.msg._Pose
Pose
p2
c__builtin__
object
p3
Ntp4
Rp5
(lp6
g1
(cgeometry_msgs.msg._Point
Point
p7
g3
Ntp8
Rp9
(lp10
cnumpy.core.multiarray
scalar
p11
(cnumpy
dtype
p12
(S'f8'
p13
I0
I1
tp14
Rp15
(I3
S'<'
p16
NNNI-1
I-1
I0
tp17
bS'\xa0\x14\xa8.j\xe6\xb9?'
p18
tp19
Rp20
ag11
(g15
S'/8,\xec\x97\x00\xb5?'
p21
tp22
Rp23
ag11
(g15
S'\xe8B\xff\xc0J<\xb5?'
p24
tp25
Rp26
abag1
(cgeometry_msgs.msg._Quaternion
Quaternion
p27
g3
Ntp28
Rp29
(lp30
g11
(g15
S'\xfa\x96\x08e\xb1\xe8\xe3\xbf'
p31
tp32
Rp33
ag11
(g15
S'\xecDF7:`\xd0\xbf'
p34
tp35
Rp36
ag11
(g15
S'\xd0\xed\x16]\x86\x07\xe7?'
p37
tp38
Rp39
ag11
(g15
S'\x903V\x83\xe2\xfe\xc5?'
p40
tp41
Rp42
ababI3
I01
tp43
a(g1
(g2
g3
Ntp44
Rp45
(lp46
g1
(g7
g3
Ntp47
Rp48
(lp49
g11
(g15
S'pc\xddar*\xb3?'
p50
tp51
Rp52
ag11
(g15
S'\xcf\xc9A\xd4q/\xc4\xbf'
p53
tp54
Rp55
ag11
(g15
S'p\xdbj\xe8\x94\xb0\xb8?'
p56
tp57
Rp58
abag1
(g27
g3
Ntp59
Rp60
(lp61
g11
(g15
S'fl\x99\x9f\xe5=\xe4\xbf'
p62
tp63
Rp64
ag11
(g15
S'\xfa%\xe2^\x95\xd3\xc2\xbf'
p65
tp66
Rp67
ag11
(g15
S'\tCX7"G\xe8?'
p68
tp69
Rp70
ag11
(g15
S'\x1ea\xe8\x988N\xaa?'
p71
tp72
Rp73
ababI3
I01
tp74
a.