(lp0
(ccopy_reg
_reconstructor
p1
(cgeometry_msgs.msg._Pose
Pose
p2
c__builtin__
object
p3
Ntp4
Rp5
(lp6
g1
(cgeometry_msgs.msg._Point
Point
p7
g3
Ntp8
Rp9
(lp10
cnumpy.core.multiarray
scalar
p11
(cnumpy
dtype
p12
(S'f8'
p13
I0
I1
tp14
Rp15
(I3
S'<'
p16
NNNI-1
I-1
I0
tp17
bS'pC\x08\xda\x1b\xd7\xd5\xbf'
p18
tp19
Rp20
ag11
(g15
S'1\xe3\xde\xe0R\xb6\xb2\xbf'
p21
tp22
Rp23
ag11
(g15
S'\x9c\x87R\t\x96x\xd7?'
p24
tp25
Rp26
abag1
(cgeometry_msgs.msg._Quaternion
Quaternion
p27
g3
Ntp28
Rp29
(lp30
g11
(g15
S'6\xc4\xecI\xb8A\xcd\xbf'
p31
tp32
Rp33
ag11
(g15
S'\xd2-R\xb9\x1e,\xb2?'
p34
tp35
Rp36
ag11
(g15
S'\t\xc7\xc4\r\x91\xbe\xed?'
p37
tp38
Rp39
ag11
(g15
S')\\\x0b$\xfe\xf4\xd1?'
p40
tp41
Rp42
ababI3
I01
tp43
a(g1
(g2
g3
Ntp44
Rp45
(lp46
g1
(g7
g3
Ntp47
Rp48
(lp49
g11
(g15
S'\xf0A\xca\xef\xd7Z\xb8?'
p50
tp51
Rp52
ag11
(g15
S'\x11S\x14j8\xe7\xd3?'
p53
tp54
Rp55
ag11
(g15
S'X>\xdd\x1c{\x0b\xdc?'
p56
tp57
Rp58
abag1
(g27
g3
Ntp59
Rp60
(lp61
g11
(g15
S'3\xe7n\x7f\x82\xfd\xe1\xbf'
p62
tp63
Rp64
ag11
(g15
S'\x89\x9b\xf4\x97\xba\xe2\xd9\xbf'
p65
tp66
Rp67
ag11
(g15
S'\xdd\xfd@\x05\x1c\x00\xe3?'
p68
tp69
Rp70
ag11
(g15
S'\xce\x7f\xfay>7\xda?'
p71
tp72
Rp73
ababI3
I01
tp74
a.