(lp0
(ccopy_reg
_reconstructor
p1
(cgeometry_msgs.msg._Pose
Pose
p2
c__builtin__
object
p3
Ntp4
Rp5
(lp6
g1
(cgeometry_msgs.msg._Point
Point
p7
g3
Ntp8
Rp9
(lp10
cnumpy.core.multiarray
scalar
p11
(cnumpy
dtype
p12
(S'f8'
p13
I0
I1
tp14
Rp15
(I3
S'<'
p16
NNNI-1
I-1
I0
tp17
bS'\xb8\xe3\x8c\x17\x11+\xc0\xbf'
p18
tp19
Rp20
ag11
(g15
S')\x9e\xeb\xa0s\xb3\x96\xbf'
p21
tp22
Rp23
ag11
(g15
S'\xeb\xed\x135\xf8\x82\xd4?'
p24
tp25
Rp26
abag1
(cgeometry_msgs.msg._Quaternion
Quaternion
p27
g3
Ntp28
Rp29
(lp30
g11
(g15
S'\xb9\xee\x87\xe7\x06\x13\xe3\xbf'
p31
tp32
Rp33
ag11
(g15
S'\x19#\x95I\xd0\xff\xac\xbf'
p34
tp35
Rp36
ag11
(g15
S'\xdfl?\xfc;\x8f\xe9?'
p37
tp38
Rp39
ag11
(g15
S'\xfa+\x99\x7f\x03X\xae?'
p40
tp41
Rp42
ababI16
I01
tp43
a.